target datalayout = "e-m:e-p270:32:32-p271:32:32-p272:64:64-i64:64-i128:128-f80:128-n8:16:32:64-S128"
target triple = "x86_64-pc-linux-gnu"

%struct.Llb_Mtr_t_ = type { i32, i32, i32, i32, ptr, ptr, ptr, ptr, ptr, ptr, ptr }

@.str.2 = private unnamed_addr constant [41 x i8] c"Llb_MtrVerifyColumns(): Internal error.\0A\00", align 1

; Function Attrs: nounwind uwtable
define void @Llb_MtrVerifyColumns(ptr noundef %0, i32 noundef %1) #0 {
  %3 = alloca ptr, align 8
  %4 = alloca i32, align 4
  %5 = alloca i32, align 4
  %6 = alloca i32, align 4
  %7 = alloca i32, align 4
  store ptr %0, ptr %3, align 8, !tbaa !3
  store i32 %1, ptr %4, align 4, !tbaa !8
  call void @llvm.lifetime.start.p0(i64 4, ptr %5) #7
  call void @llvm.lifetime.start.p0(i64 4, ptr %6) #7
  call void @llvm.lifetime.start.p0(i64 4, ptr %7) #7
  store i32 0, ptr %5, align 4, !tbaa !8
  br label %8

8:                                                ; preds = %66, %2
  %9 = load i32, ptr %5, align 4, !tbaa !8
  %10 = load ptr, ptr %3, align 8, !tbaa !3
  %11 = getelementptr inbounds nuw %struct.Llb_Mtr_t_, ptr %10, i32 0, i32 2
  %12 = load i32, ptr %11, align 8, !tbaa !22
  %13 = icmp slt i32 %9, %12
  br i1 %13, label %14, label %69

14:                                               ; preds = %8
  %15 = load ptr, ptr %3, align 8, !tbaa !3
  %16 = getelementptr inbounds nuw %struct.Llb_Mtr_t_, ptr %15, i32 0, i32 9
  %17 = load ptr, ptr %16, align 8, !tbaa !25
  %18 = load i32, ptr %5, align 4, !tbaa !8
  %19 = sext i32 %18 to i64
  %20 = getelementptr inbounds i8, ptr %17, i64 %19
  %21 = load i8, ptr %20, align 1, !tbaa !26
  %22 = sext i8 %21 to i32
  %23 = icmp eq i32 %22, 0
  br i1 %23, label %24, label %25

24:                                               ; preds = %14
  br label %66

25:                                               ; preds = %14
  store i32 0, ptr %7, align 4, !tbaa !8
  %26 = load i32, ptr %4, align 4, !tbaa !8
  store i32 %26, ptr %6, align 4, !tbaa !8
  br label %27

27:                                               ; preds = %51, %25
  %28 = load i32, ptr %6, align 4, !tbaa !8
  %29 = load ptr, ptr %3, align 8, !tbaa !3
  %30 = getelementptr inbounds nuw %struct.Llb_Mtr_t_, ptr %29, i32 0, i32 3
  %31 = load i32, ptr %30, align 4, !tbaa !28
  %32 = icmp slt i32 %28, %31
  br i1 %32, label %33, label %54

33:                                               ; preds = %27
  %34 = load ptr, ptr %3, align 8, !tbaa !3
  %35 = getelementptr inbounds nuw %struct.Llb_Mtr_t_, ptr %34, i32 0, i32 7
  %36 = load ptr, ptr %35, align 8, !tbaa !19
  %37 = load i32, ptr %6, align 4, !tbaa !8
  %38 = sext i32 %37 to i64
  %39 = getelementptr inbounds ptr, ptr %36, i64 %38
  %40 = load ptr, ptr %39, align 8, !tbaa !20
  %41 = load i32, ptr %5, align 4, !tbaa !8
  %42 = sext i32 %41 to i64
  %43 = getelementptr inbounds i8, ptr %40, i64 %42
  %44 = load i8, ptr %43, align 1, !tbaa !26
  %45 = sext i8 %44 to i32
  %46 = icmp eq i32 %45, 1
  br i1 %46, label %47, label %50

47:                                               ; preds = %33
  %48 = load i32, ptr %7, align 4, !tbaa !8
  %49 = add nsw i32 %48, 1
  store i32 %49, ptr %7, align 4, !tbaa !8
  br label %50

50:                                               ; preds = %47, %33
  br label %51

51:                                               ; preds = %50
  %52 = load i32, ptr %6, align 4, !tbaa !8
  %53 = add nsw i32 %52, 1
  store i32 %53, ptr %6, align 4, !tbaa !8
  br label %27, !llvm.loop !38

54:                                               ; preds = %27
  %55 = load i32, ptr %7, align 4, !tbaa !8
  %56 = load ptr, ptr %3, align 8, !tbaa !3
  %57 = getelementptr inbounds nuw %struct.Llb_Mtr_t_, ptr %56, i32 0, i32 10
  %58 = load ptr, ptr %57, align 8, !tbaa !27
  %59 = load i32, ptr %5, align 4, !tbaa !8
  %60 = sext i32 %59 to i64
  %61 = getelementptr inbounds i32, ptr %58, i64 %60
  %62 = load i32, ptr %61, align 4, !tbaa !8
  %63 = icmp ne i32 %55, %62
  br i1 %63, label %64, label %65

64:                                               ; preds = %54
  call void (i32, ptr, ...) @Abc_Print(i32 noundef -1, ptr noundef @.str.2)
  br label %65

65:                                               ; preds = %64, %54
  br label %66

66:                                               ; preds = %65, %24
  %67 = load i32, ptr %5, align 4, !tbaa !8
  %68 = add nsw i32 %67, 1
  store i32 %68, ptr %5, align 4, !tbaa !8
  br label %8, !llvm.loop !39

69:                                               ; preds = %8
  call void @llvm.lifetime.end.p0(i64 4, ptr %7) #7
  call void @llvm.lifetime.end.p0(i64 4, ptr %6) #7
  call void @llvm.lifetime.end.p0(i64 4, ptr %5) #7
  ret void
}