; Function Attrs: nounwind uwtable
define void @Llb_MtrVerifyColumns(ptr noundef readonly captures(none) %0, i32 noundef %1) local_unnamed_addr #2 {
  %3 = getelementptr inbounds nuw i8, ptr %0, i64 8
  %4 = load i32, ptr %3, align 8, !tbaa !20
  %5 = icmp sgt i32 %4, 0
  br i1 %5, label %.lr.ph21, label %._crit_edge22

.lr.ph21:                                         ; preds = %2
  %6 = getelementptr inbounds nuw i8, ptr %0, i64 56
  %7 = getelementptr inbounds nuw i8, ptr %0, i64 12
  %8 = getelementptr inbounds nuw i8, ptr %0, i64 40
  %9 = getelementptr inbounds nuw i8, ptr %0, i64 64
  %10 = sext i32 %1 to i64
  br label %11

11:                                               ; preds = %.lr.ph21, %31
  %12 = phi i32 [ %4, %.lr.ph21 ], [ %32, %31 ]
  %indvars.iv24 = phi i64 [ 0, %.lr.ph21 ], [ %indvars.iv.next25, %31 ]
  %13 = load ptr, ptr %6, align 8, !tbaa !23
  %14 = getelementptr inbounds nuw i8, ptr %13, i64 %indvars.iv24
  %15 = load i8, ptr %14, align 1, !tbaa !24
  %16 = icmp eq i8 %15, 0
  br i1 %16, label %31, label %.preheader

.preheader:                                       ; preds = %11
  %17 = load i32, ptr %7, align 4, !tbaa !26
  %18 = icmp slt i32 %1, %17
  br i1 %18, label %.lr.ph, label %._crit_edge

.lr.ph:                                           ; preds = %.preheader
  %19 = load ptr, ptr %8, align 8, !tbaa !16
  %wide.trip.count = sext i32 %17 to i64
  br label %20

20:                                               ; preds = %.lr.ph, %20
  %indvars.iv = phi i64 [ %10, %.lr.ph ], [ %indvars.iv.next, %20 ]
  %.018 = phi i32 [ 0, %.lr.ph ], [ %spec.select, %20 ]
  %21 = getelementptr inbounds ptr, ptr %19, i64 %indvars.iv
  %22 = load ptr, ptr %21, align 8, !tbaa !17
  %23 = getelementptr inbounds nuw i8, ptr %22, i64 %indvars.iv24
  %24 = load i8, ptr %23, align 1, !tbaa !24
  %25 = icmp eq i8 %24, 1
  %26 = zext i1 %25 to i32
  %spec.select = add nuw nsw i32 %.018, %26
  %indvars.iv.next = add nsw i64 %indvars.iv, 1
  %exitcond.not = icmp eq i64 %indvars.iv.next, %wide.trip.count
  br i1 %exitcond.not, label %._crit_edge, label %20, !llvm.loop !39

._crit_edge:                                      ; preds = %20, %.preheader
  %.0.lcssa = phi i32 [ 0, %.preheader ], [ %spec.select, %20 ]
  %27 = load ptr, ptr %9, align 8, !tbaa !25
  %28 = getelementptr inbounds nuw i32, ptr %27, i64 %indvars.iv24
  %29 = load i32, ptr %28, align 4, !tbaa !19
  %.not = icmp eq i32 %.0.lcssa, %29
  br i1 %.not, label %31, label %30

30:                                               ; preds = %._crit_edge
  tail call void (i32, ptr, ...) @Abc_Print(i32 poison, ptr noundef nonnull @.str.2)
  %.pre = load i32, ptr %3, align 8, !tbaa !20
  br label %31

31:                                               ; preds = %._crit_edge, %30, %11
  %32 = phi i32 [ %12, %._crit_edge ], [ %.pre, %30 ], [ %12, %11 ]
  %indvars.iv.next25 = add nuw nsw i64 %indvars.iv24, 1
  %33 = sext i32 %32 to i64
  %34 = icmp slt i64 %indvars.iv.next25, %33
  br i1 %34, label %11, label %._crit_edge22, !llvm.loop !40

._crit_edge22:                                    ; preds = %31, %2
  ret void
}